; Function Attrs: mustprogress nobuiltin allocsize(0) uwtable
define dso_local noundef nonnull ptr @_Znam(i64 noundef %0) local_unnamed_addr #10 personality ptr @__gxx_personality_v0 {
  %2 = load ptr, ptr @_ZN6google10g_new_hookE, align 8, !tbaa !52
  %.not.i.i = icmp eq ptr %2, null
  br i1 %.not.i.i, label %_ZnwmRKSt9nothrow_t.exit.i, label %3

3:                                                ; preds = %1
  invoke void %2()
          to label %_ZnwmRKSt9nothrow_t.exit.i unwind label %4

4:                                                ; preds = %3
  %5 = landingpad { ptr, i32 }
          catch ptr null
  %6 = extractvalue { ptr, i32 } %5, 0
  tail call void @__clang_call_terminate(ptr %6) #29
  unreachable

_ZnwmRKSt9nothrow_t.exit.i:                       ; preds = %3, %1
  %7 = tail call noalias noundef ptr @malloc(i64 noundef %0) #30
  %8 = icmp eq ptr %7, null
  br i1 %8, label %9, label %_Znwm.exit

9:                                                ; preds = %_ZnwmRKSt9nothrow_t.exit.i
  %10 = tail call ptr @__cxa_allocate_exception(i64 8) #28
  store ptr getelementptr inbounds nuw inrange(-16, 24) (i8, ptr @_ZTVSt9bad_alloc, i64 16), ptr %10, align 8, !tbaa !4
  tail call void @__cxa_throw(ptr nonnull %10, ptr nonnull @_ZTISt9bad_alloc, ptr nonnull @_ZNSt9bad_allocD1Ev) #31
  unreachable

_Znwm.exit:                                       ; preds = %_ZnwmRKSt9nothrow_t.exit.i
  ret ptr %7
}